target datalayout = "e-m:e-p270:32:32-p271:32:32-p272:64:64-i64:64-i128:128-f80:128-n8:16:32:64-S128"
target triple = "x86_64-unknown-linux-gnu"

@.str.30 = private unnamed_addr constant [9 x i8] c"rng-seed\00", align 1

; Function Attrs: nounwind sspstrong uwtable
define dso_local void @qemu_fdt_randomize_seeds(ptr noundef %fdt) #0 {
entry:
  %fdt.addr = alloca ptr, align 8
  %noffset = alloca i32, align 4
  %poffset = alloca i32, align 4
  %len = alloca i32, align 4
  %name = alloca ptr, align 8
  %data = alloca ptr, align 8
  store ptr %fdt, ptr %fdt.addr, align 8
  %0 = load ptr, ptr %fdt.addr, align 8
  %call = call i32 @fdt_next_node(ptr noundef %0, i32 noundef 0, ptr noundef null)
  store i32 %call, ptr %noffset, align 4
  br label %for.cond

for.cond:                                         ; preds = %for.inc9, %entry
  %1 = load i32, ptr %noffset, align 4
  %cmp = icmp sge i32 %1, 0
  br i1 %cmp, label %for.body, label %for.end11

for.body:                                         ; preds = %for.cond
  %2 = load ptr, ptr %fdt.addr, align 8
  %3 = load i32, ptr %noffset, align 4
  %call1 = call i32 @fdt_first_property_offset(ptr noundef %2, i32 noundef %3)
  store i32 %call1, ptr %poffset, align 4
  br label %for.cond2

for.cond2:                                        ; preds = %for.inc, %for.body
  %4 = load i32, ptr %poffset, align 4
  %cmp3 = icmp sge i32 %4, 0
  br i1 %cmp3, label %for.body4, label %for.end

for.body4:                                        ; preds = %for.cond2
  %5 = load ptr, ptr %fdt.addr, align 8
  %6 = load i32, ptr %poffset, align 4
  %call5 = call ptr @fdt_getprop_by_offset(ptr noundef %5, i32 noundef %6, ptr noundef %name, ptr noundef %len)
  store ptr %call5, ptr %data, align 8
  %7 = load ptr, ptr %data, align 8
  %tobool = icmp ne ptr %7, null
  br i1 %tobool, label %lor.lhs.false, label %if.then

lor.lhs.false:                                    ; preds = %for.body4
  %8 = load ptr, ptr %name, align 8
  %call6 = call i32 @strcmp(ptr noundef %8, ptr noundef @.str.30) #11
  %tobool7 = icmp ne i32 %call6, 0
  br i1 %tobool7, label %if.then, label %if.end

if.then:                                          ; preds = %lor.lhs.false, %for.body4
  br label %for.inc

if.end:                                           ; preds = %lor.lhs.false
  %9 = load ptr, ptr %data, align 8
  %10 = load i32, ptr %len, align 4
  %conv = sext i32 %10 to i64
  call void @qemu_guest_getrandom_nofail(ptr noundef %9, i64 noundef %conv)
  br label %for.inc

for.inc:                                          ; preds = %if.end, %if.then
  %11 = load ptr, ptr %fdt.addr, align 8
  %12 = load i32, ptr %poffset, align 4
  %call8 = call i32 @fdt_next_property_offset(ptr noundef %11, i32 noundef %12)
  store i32 %call8, ptr %poffset, align 4
  br label %for.cond2, !llvm.loop !19

for.end:                                          ; preds = %for.cond2
  br label %for.inc9

for.inc9:                                         ; preds = %for.end
  %13 = load ptr, ptr %fdt.addr, align 8
  %14 = load i32, ptr %noffset, align 4
  %call10 = call i32 @fdt_next_node(ptr noundef %13, i32 noundef %14, ptr noundef null)
  store i32 %call10, ptr %noffset, align 4
  br label %for.cond, !llvm.loop !20

for.end11:                                        ; preds = %for.cond
  ret void
}