; Function Attrs: nounwind sspstrong uwtable
define dso_local void @qemu_fdt_randomize_seeds(ptr noundef %fdt) local_unnamed_addr #0 {
entry:
  %len = alloca i32, align 4
  %name = alloca ptr, align 8
  %call = tail call i32 @fdt_next_node(ptr noundef %fdt, i32 noundef 0, ptr noundef null) #12
  %cmp12 = icmp sgt i32 %call, -1
  br i1 %cmp12, label %for.body, label %for.end11

for.body:                                         ; preds = %entry, %for.inc9
  %noffset.013 = phi i32 [ %call10, %for.inc9 ], [ %call, %entry ]
  %call1 = call i32 @fdt_first_property_offset(ptr noundef %fdt, i32 noundef %noffset.013) #12
  %cmp310 = icmp sgt i32 %call1, -1
  br i1 %cmp310, label %for.body4, label %for.inc9

for.body4:                                        ; preds = %for.body, %for.inc
  %poffset.011 = phi i32 [ %call8, %for.inc ], [ %call1, %for.body ]
  %call5 = call ptr @fdt_getprop_by_offset(ptr noundef %fdt, i32 noundef %poffset.011, ptr noundef nonnull %name, ptr noundef nonnull %len) #12
  %tobool.not = icmp eq ptr %call5, null
  br i1 %tobool.not, label %for.inc, label %lor.lhs.false

lor.lhs.false:                                    ; preds = %for.body4
  %0 = load ptr, ptr %name, align 8
  %call6 = call i32 @strcmp(ptr noundef nonnull dereferenceable(1) %0, ptr noundef nonnull dereferenceable(9) @.str.30) #14
  %tobool7.not = icmp eq i32 %call6, 0
  br i1 %tobool7.not, label %if.end, label %for.inc

if.end:                                           ; preds = %lor.lhs.false
  %1 = load i32, ptr %len, align 4
  %conv = sext i32 %1 to i64
  call void @qemu_guest_getrandom_nofail(ptr noundef nonnull %call5, i64 noundef %conv) #12
  br label %for.inc

for.inc:                                          ; preds = %for.body4, %lor.lhs.false, %if.end
  %call8 = call i32 @fdt_next_property_offset(ptr noundef %fdt, i32 noundef %poffset.011) #12
  %cmp3 = icmp sgt i32 %call8, -1
  br i1 %cmp3, label %for.body4, label %for.inc9, !llvm.loop !19

for.inc9:                                         ; preds = %for.inc, %for.body
  %call10 = call i32 @fdt_next_node(ptr noundef %fdt, i32 noundef %noffset.013, ptr noundef null) #12
  %cmp = icmp sgt i32 %call10, -1
  br i1 %cmp, label %for.body, label %for.end11, !llvm.loop !20

for.end11:                                        ; preds = %for.inc9, %entry
  ret void
}